(lp0
(S'cppflags'
p1
ccopy_reg
_reconstructor
p2
(cino.utils
SpaceList
p3
c__builtin__
list
p4
(lp5
S'-mmcu=atmega328p'
p6
aS'-DF_CPU=16000000L'
p7
aS'-DARDUINO=100'
p8
aS'-I/usr/share/arduino/hardware/arduino/cores/arduino'
p9
aS'-ffunction-sections'
p10
aS'-fdata-sections'
p11
aS'-g'
p12
aS'-Os'
p13
aS'-w'
p14
aS'-I/usr/share/arduino/hardware/arduino/variants/standard'
p15
aS'-I/usr/share/arduino/hardware/arduino/cores/arduino'
p16
atp17
Rp18
tp19
a(S'cxx'
p20
S'/usr/bin/avr-g++'
p21
tp22
a(S'arduino_libraries_dir'
p23
S'/usr/share/arduino/libraries'
p24
tp25
a(S'avrdude'
p26
S'/usr/share/arduino/hardware/tools/avrdude'
p27
tp28
a(S'ar'
p29
S'/usr/bin/avr-ar'
p30
tp31
a(S'names'
p32
(dp33
S'cpp'
p34
S'%s.cpp'
p35
sS'obj'
p36
S'%s.o'
p37
sS'lib'
p38
S'lib%s.a'
p39
sS'deps'
p40
S'%s.d'
p41
stp42
a(S'ldflags'
p43
g2
(g3
g4
(lp44
g6
aS'-Wl,-Os'
p45
aS'-Wl,--gc-sections'
p46
atp47
Rp48
tp49
a(S'arduino_lib_version'
p50
g2
(cino.environment
Version
p51
c__builtin__
tuple
p52
(I1
I0
I0
tp53
tp54
Rp55
tp56
a(S'objcopy'
p57
S'/usr/bin/avr-objcopy'
p58
tp59
a(S'board_models'
p60
cino.environment
BoardModels
p61
((lp62
(lp63
S'uno'
p64
a(dp65
S'bootloader'
p66
(dp67
S'extended_fuses'
p68
S'0x05'
p69
sS'high_fuses'
p70
S'0xde'
p71
sS'low_fuses'
p72
S'0xff'
p73
sS'lock_bits'
p74
S'0x0F'
p75
sS'file'
p76
S'optiboot_atmega328.hex'
p77
sS'path'
p78
S'optiboot'
p79
sS'unlock_bits'
p80
S'0x3F'
p81
ssS'upload'
p82
(dp83
S'protocol'
p84
S'arduino'
p85
sS'maximum_size'
p86
S'32256'
p87
sS'speed'
p88
S'115200'
p89
ssS'build'
p90
(dp91
S'core'
p92
S'arduino'
p93
sS'mcu'
p94
S'atmega328p'
p95
sS'f_cpu'
p96
S'16000000L'
p97
sS'variant'
p98
S'standard'
p99
ssS'name'
p100
S'Arduino Uno'
p101
saa(lp102
S'atmega328'
p103
a(dp104
S'bootloader'
p105
(dp106
S'extended_fuses'
p107
S'0x05'
p108
sS'high_fuses'
p109
S'0xDA'
p110
sS'low_fuses'
p111
S'0xFF'
p112
sS'lock_bits'
p113
S'0x0F'
p114
sS'file'
p115
S'ATmegaBOOT_168_atmega328.hex'
p116
sS'path'
p117
S'atmega'
p118
sS'unlock_bits'
p119
S'0x3F'
p120
ssS'upload'
p121
(dp122
S'protocol'
p123
S'arduino'
p124
sS'maximum_size'
p125
S'30720'
p126
sS'speed'
p127
S'57600'
p128
ssS'build'
p129
(dp130
S'core'
p131
S'arduino'
p132
sS'mcu'
p133
S'atmega328p'
p134
sS'f_cpu'
p135
S'16000000L'
p136
sS'variant'
p137
S'standard'
p138
ssS'name'
p139
S'Arduino Duemilanove w/ ATmega328'
p140
saa(lp141
S'diecimila'
p142
a(dp143
S'bootloader'
p144
(dp145
S'extended_fuses'
p146
S'0x00'
p147
sS'high_fuses'
p148
S'0xdd'
p149
sS'low_fuses'
p150
S'0xff'
p151
sS'lock_bits'
p152
S'0x0F'
p153
sS'file'
p154
S'ATmegaBOOT_168_diecimila.hex'
p155
sS'path'
p156
S'atmega'
p157
sS'unlock_bits'
p158
S'0x3F'
p159
ssS'upload'
p160
(dp161
S'protocol'
p162
S'arduino'
p163
sS'maximum_size'
p164
S'14336'
p165
sS'speed'
p166
S'19200'
p167
ssS'build'
p168
(dp169
S'core'
p170
S'arduino'
p171
sS'mcu'
p172
S'atmega168'
p173
sS'f_cpu'
p174
S'16000000L'
p175
sS'variant'
p176
S'standard'
p177
ssS'name'
p178
S'Arduino Diecimila or Duemilanove w/ ATmega168'
p179
saa(lp180
S'nano328'
p181
a(dp182
S'bootloader'
p183
(dp184
S'extended_fuses'
p185
S'0x05'
p186
sS'high_fuses'
p187
S'0xDA'
p188
sS'low_fuses'
p189
S'0xFF'
p190
sS'lock_bits'
p191
S'0x0F'
p192
sS'file'
p193
S'ATmegaBOOT_168_atmega328.hex'
p194
sS'path'
p195
S'atmega'
p196
sS'unlock_bits'
p197
S'0x3F'
p198
ssS'upload'
p199
(dp200
S'protocol'
p201
S'arduino'
p202
sS'maximum_size'
p203
S'30720'
p204
sS'speed'
p205
S'57600'
p206
ssS'build'
p207
(dp208
S'core'
p209
S'arduino'
p210
sS'mcu'
p211
S'atmega328p'
p212
sS'f_cpu'
p213
S'16000000L'
p214
sS'variant'
p215
S'eightanaloginputs'
p216
ssS'name'
p217
S'Arduino Nano w/ ATmega328'
p218
saa(lp219
S'nano'
p220
a(dp221
S'bootloader'
p222
(dp223
S'extended_fuses'
p224
S'0x00'
p225
sS'high_fuses'
p226
S'0xdd'
p227
sS'low_fuses'
p228
S'0xff'
p229
sS'lock_bits'
p230
S'0x0F'
p231
sS'file'
p232
S'ATmegaBOOT_168_diecimila.hex'
p233
sS'path'
p234
S'atmega'
p235
sS'unlock_bits'
p236
S'0x3F'
p237
ssS'upload'
p238
(dp239
S'protocol'
p240
S'arduino'
p241
sS'maximum_size'
p242
S'14336'
p243
sS'speed'
p244
S'19200'
p245
ssS'build'
p246
(dp247
S'core'
p248
S'arduino'
p249
sS'mcu'
p250
S'atmega168'
p251
sS'f_cpu'
p252
S'16000000L'
p253
sS'variant'
p254
S'eightanaloginputs'
p255
ssS'name'
p256
S'Arduino Nano w/ ATmega168'
p257
saa(lp258
S'mega2560'
p259
a(dp260
S'bootloader'
p261
(dp262
S'extended_fuses'
p263
S'0xFD'
p264
sS'high_fuses'
p265
S'0xD8'
p266
sS'low_fuses'
p267
S'0xFF'
p268
sS'lock_bits'
p269
S'0x0F'
p270
sS'file'
p271
S'stk500boot_v2_mega2560.hex'
p272
sS'path'
p273
S'stk500v2'
p274
sS'unlock_bits'
p275
S'0x3F'
p276
ssS'upload'
p277
(dp278
S'protocol'
p279
S'stk500v2'
p280
sS'maximum_size'
p281
S'258048'
p282
sS'speed'
p283
S'115200'
p284
ssS'build'
p285
(dp286
S'core'
p287
S'arduino'
p288
sS'mcu'
p289
S'atmega2560'
p290
sS'f_cpu'
p291
S'16000000L'
p292
sS'variant'
p293
S'mega'
p294
ssS'name'
p295
S'Arduino Mega 2560 or Mega ADK'
p296
saa(lp297
S'mega'
p298
a(dp299
S'bootloader'
p300
(dp301
S'extended_fuses'
p302
S'0xF5'
p303
sS'high_fuses'
p304
S'0xDA'
p305
sS'low_fuses'
p306
S'0xFF'
p307
sS'lock_bits'
p308
S'0x0F'
p309
sS'file'
p310
S'ATmegaBOOT_168_atmega1280.hex'
p311
sS'path'
p312
S'atmega'
p313
sS'unlock_bits'
p314
S'0x3F'
p315
ssS'upload'
p316
(dp317
S'protocol'
p318
S'arduino'
p319
sS'maximum_size'
p320
S'126976'
p321
sS'speed'
p322
S'57600'
p323
ssS'build'
p324
(dp325
S'core'
p326
S'arduino'
p327
sS'mcu'
p328
S'atmega1280'
p329
sS'f_cpu'
p330
S'16000000L'
p331
sS'variant'
p332
S'mega'
p333
ssS'name'
p334
S'Arduino Mega (ATmega1280)'
p335
saa(lp336
S'mini328'
p337
a(dp338
S'bootloader'
p339
(dp340
S'extended_fuses'
p341
S'0x05'
p342
sS'high_fuses'
p343
S'0xd8'
p344
sS'low_fuses'
p345
S'0xff'
p346
sS'lock_bits'
p347
S'0x0F'
p348
sS'file'
p349
S'optiboot_atmega328-Mini.hex'
p350
sS'path'
p351
S'optiboot'
p352
sS'unlock_bits'
p353
S'0x3F'
p354
ssS'upload'
p355
(dp356
S'protocol'
p357
S'stk500'
p358
sS'maximum_size'
p359
S'28672'
p360
sS'speed'
p361
S'115200'
p362
ssS'build'
p363
(dp364
S'core'
p365
S'arduino'
p366
sS'mcu'
p367
S'atmega328p'
p368
sS'f_cpu'
p369
S'16000000L'
p370
sS'variant'
p371
S'eightanaloginputs'
p372
ssS'name'
p373
S'Arduino Mini w/ ATmega328'
p374
saa(lp375
S'mini'
p376
a(dp377
S'bootloader'
p378
(dp379
S'extended_fuses'
p380
S'0x00'
p381
sS'high_fuses'
p382
S'0xdd'
p383
sS'low_fuses'
p384
S'0xff'
p385
sS'lock_bits'
p386
S'0x0F'
p387
sS'file'
p388
S'ATmegaBOOT_168_ng.hex'
p389
sS'path'
p390
S'atmega'
p391
sS'unlock_bits'
p392
S'0x3F'
p393
ssS'upload'
p394
(dp395
S'protocol'
p396
S'arduino'
p397
sS'maximum_size'
p398
S'14336'
p399
sS'speed'
p400
S'19200'
p401
ssS'build'
p402
(dp403
S'core'
p404
S'arduino'
p405
sS'mcu'
p406
S'atmega168'
p407
sS'f_cpu'
p408
S'16000000L'
p409
sS'variant'
p410
S'eightanaloginputs'
p411
ssS'name'
p412
S'Arduino Mini w/ ATmega168'
p413
saa(lp414
S'ethernet'
p415
a(dp416
S'bootloader'
p417
(dp418
S'extended_fuses'
p419
S'0x05'
p420
sS'high_fuses'
p421
S'0xde'
p422
sS'low_fuses'
p423
S'0xff'
p424
sS'lock_bits'
p425
S'0x0F'
p426
sS'file'
p427
S'optiboot_atmega328.hex'
p428
sS'path'
p429
S'optiboot'
p430
sS'unlock_bits'
p431
S'0x3F'
p432
ssS'upload'
p433
(dp434
S'protocol'
p435
S'arduino'
p436
sS'maximum_size'
p437
S'32256'
p438
sS'speed'
p439
S'115200'
p440
ssS'build'
p441
(dp442
S'variant'
p443
S'standard'
p444
sS'mcu'
p445
S'atmega328p'
p446
sS'f_cpu'
p447
S'16000000L'
p448
sS'core'
p449
S'arduino'
p450
ssS'name'
p451
S'Arduino Ethernet'
p452
saa(lp453
S'fio'
p454
a(dp455
S'bootloader'
p456
(dp457
S'extended_fuses'
p458
S'0x05'
p459
sS'high_fuses'
p460
S'0xDA'
p461
sS'low_fuses'
p462
S'0xFF'
p463
sS'lock_bits'
p464
S'0x0F'
p465
sS'file'
p466
S'ATmegaBOOT_168_atmega328_pro_8MHz.hex'
p467
sS'path'
p468
S'arduino:atmega'
p469
sS'unlock_bits'
p470
S'0x3F'
p471
ssS'upload'
p472
(dp473
S'protocol'
p474
S'arduino'
p475
sS'maximum_size'
p476
S'30720'
p477
sS'speed'
p478
S'57600'
p479
ssS'build'
p480
(dp481
S'core'
p482
S'arduino'
p483
sS'mcu'
p484
S'atmega328p'
p485
sS'f_cpu'
p486
S'8000000L'
p487
sS'variant'
p488
S'eightanaloginputs'
p489
ssS'name'
p490
S'Arduino Fio'
p491
saa(lp492
S'bt328'
p493
a(dp494
S'bootloader'
p495
(dp496
S'extended_fuses'
p497
S'0x05'
p498
sS'high_fuses'
p499
S'0xd8'
p500
sS'low_fuses'
p501
S'0xff'
p502
sS'lock_bits'
p503
S'0x0F'
p504
sS'file'
p505
S'ATmegaBOOT_168_atmega328_bt.hex'
p506
sS'path'
p507
S'bt'
p508
sS'unlock_bits'
p509
S'0x3F'
p510
ssS'upload'
p511
(dp512
S'protocol'
p513
S'arduino'
p514
sS'maximum_size'
p515
S'28672'
p516
sS'speed'
p517
S'19200'
p518
sS'disable_flushing'
p519
S'true'
p520
ssS'build'
p521
(dp522
S'core'
p523
S'arduino'
p524
sS'mcu'
p525
S'atmega328p'
p526
sS'f_cpu'
p527
S'16000000L'
p528
sS'variant'
p529
S'eightanaloginputs'
p530
ssS'name'
p531
S'Arduino BT w/ ATmega328'
p532
saa(lp533
S'bt'
p534
a(dp535
S'bootloader'
p536
(dp537
S'extended_fuses'
p538
S'0x00'
p539
sS'high_fuses'
p540
S'0xdd'
p541
sS'low_fuses'
p542
S'0xff'
p543
sS'lock_bits'
p544
S'0x0F'
p545
sS'file'
p546
S'ATmegaBOOT_168.hex'
p547
sS'path'
p548
S'bt'
p549
sS'unlock_bits'
p550
S'0x3F'
p551
ssS'upload'
p552
(dp553
S'protocol'
p554
S'arduino'
p555
sS'maximum_size'
p556
S'14336'
p557
sS'speed'
p558
S'19200'
p559
sS'disable_flushing'
p560
S'true'
p561
ssS'build'
p562
(dp563
S'core'
p564
S'arduino'
p565
sS'mcu'
p566
S'atmega168'
p567
sS'f_cpu'
p568
S'16000000L'
p569
sS'variant'
p570
S'eightanaloginputs'
p571
ssS'name'
p572
S'Arduino BT w/ ATmega168'
p573
saa(lp574
S'lilypad328'
p575
a(dp576
S'bootloader'
p577
(dp578
S'extended_fuses'
p579
S'0x05'
p580
sS'high_fuses'
p581
S'0xDA'
p582
sS'low_fuses'
p583
S'0xFF'
p584
sS'lock_bits'
p585
S'0x0F'
p586
sS'file'
p587
S'ATmegaBOOT_168_atmega328_pro_8MHz.hex'
p588
sS'path'
p589
S'atmega'
p590
sS'unlock_bits'
p591
S'0x3F'
p592
ssS'upload'
p593
(dp594
S'protocol'
p595
S'arduino'
p596
sS'maximum_size'
p597
S'30720'
p598
sS'speed'
p599
S'57600'
p600
ssS'build'
p601
(dp602
S'core'
p603
S'arduino'
p604
sS'mcu'
p605
S'atmega328p'
p606
sS'f_cpu'
p607
S'8000000L'
p608
sS'variant'
p609
S'standard'
p610
ssS'name'
p611
S'LilyPad Arduino w/ ATmega328'
p612
saa(lp613
S'lilypad'
p614
a(dp615
S'bootloader'
p616
(dp617
S'extended_fuses'
p618
S'0x00'
p619
sS'high_fuses'
p620
S'0xdd'
p621
sS'low_fuses'
p622
S'0xe2'
p623
sS'lock_bits'
p624
S'0x0F'
p625
sS'file'
p626
S'LilyPadBOOT_168.hex'
p627
sS'path'
p628
S'lilypad'
p629
sS'unlock_bits'
p630
S'0x3F'
p631
ssS'upload'
p632
(dp633
S'protocol'
p634
S'arduino'
p635
sS'maximum_size'
p636
S'14336'
p637
sS'speed'
p638
S'19200'
p639
ssS'build'
p640
(dp641
S'core'
p642
S'arduino'
p643
sS'mcu'
p644
S'atmega168'
p645
sS'f_cpu'
p646
S'8000000L'
p647
sS'variant'
p648
S'standard'
p649
ssS'name'
p650
S'LilyPad Arduino w/ ATmega168'
p651
saa(lp652
S'pro5v328'
p653
a(dp654
S'bootloader'
p655
(dp656
S'extended_fuses'
p657
S'0x05'
p658
sS'high_fuses'
p659
S'0xDA'
p660
sS'low_fuses'
p661
S'0xFF'
p662
sS'lock_bits'
p663
S'0x0F'
p664
sS'file'
p665
S'ATmegaBOOT_168_atmega328.hex'
p666
sS'path'
p667
S'atmega'
p668
sS'unlock_bits'
p669
S'0x3F'
p670
ssS'upload'
p671
(dp672
S'protocol'
p673
S'arduino'
p674
sS'maximum_size'
p675
S'30720'
p676
sS'speed'
p677
S'57600'
p678
ssS'build'
p679
(dp680
S'core'
p681
S'arduino'
p682
sS'mcu'
p683
S'atmega328p'
p684
sS'f_cpu'
p685
S'16000000L'
p686
sS'variant'
p687
S'standard'
p688
ssS'name'
p689
S'Arduino Pro or Pro Mini (5V, 16 MHz) w/ ATmega328'
p690
saa(lp691
S'pro5v'
p692
a(dp693
S'bootloader'
p694
(dp695
S'extended_fuses'
p696
S'0x00'
p697
sS'high_fuses'
p698
S'0xdd'
p699
sS'low_fuses'
p700
S'0xff'
p701
sS'lock_bits'
p702
S'0x0F'
p703
sS'file'
p704
S'ATmegaBOOT_168_diecimila.hex'
p705
sS'path'
p706
S'atmega'
p707
sS'unlock_bits'
p708
S'0x3F'
p709
ssS'upload'
p710
(dp711
S'protocol'
p712
S'arduino'
p713
sS'maximum_size'
p714
S'14336'
p715
sS'speed'
p716
S'19200'
p717
ssS'build'
p718
(dp719
S'core'
p720
S'arduino'
p721
sS'mcu'
p722
S'atmega168'
p723
sS'f_cpu'
p724
S'16000000L'
p725
sS'variant'
p726
S'standard'
p727
ssS'name'
p728
S'Arduino Pro or Pro Mini (5V, 16 MHz) w/ ATmega168'
p729
saa(lp730
S'pro328'
p731
a(dp732
S'bootloader'
p733
(dp734
S'extended_fuses'
p735
S'0x05'
p736
sS'high_fuses'
p737
S'0xDA'
p738
sS'low_fuses'
p739
S'0xFF'
p740
sS'lock_bits'
p741
S'0x0F'
p742
sS'file'
p743
S'ATmegaBOOT_168_atmega328_pro_8MHz.hex'
p744
sS'path'
p745
S'atmega'
p746
sS'unlock_bits'
p747
S'0x3F'
p748
ssS'upload'
p749
(dp750
S'protocol'
p751
S'arduino'
p752
sS'maximum_size'
p753
S'30720'
p754
sS'speed'
p755
S'57600'
p756
ssS'build'
p757
(dp758
S'core'
p759
S'arduino'
p760
sS'mcu'
p761
S'atmega328p'
p762
sS'f_cpu'
p763
S'8000000L'
p764
sS'variant'
p765
S'standard'
p766
ssS'name'
p767
S'Arduino Pro or Pro Mini (3.3V, 8 MHz) w/ ATmega328'
p768
saa(lp769
S'pro'
p770
a(dp771
S'bootloader'
p772
(dp773
S'extended_fuses'
p774
S'0x00'
p775
sS'high_fuses'
p776
S'0xdd'
p777
sS'low_fuses'
p778
S'0xc6'
p779
sS'lock_bits'
p780
S'0x0F'
p781
sS'file'
p782
S'ATmegaBOOT_168_pro_8MHz.hex'
p783
sS'path'
p784
S'atmega'
p785
sS'unlock_bits'
p786
S'0x3F'
p787
ssS'upload'
p788
(dp789
S'protocol'
p790
S'arduino'
p791
sS'maximum_size'
p792
S'14336'
p793
sS'speed'
p794
S'19200'
p795
ssS'build'
p796
(dp797
S'core'
p798
S'arduino'
p799
sS'mcu'
p800
S'atmega168'
p801
sS'f_cpu'
p802
S'8000000L'
p803
sS'variant'
p804
S'standard'
p805
ssS'name'
p806
S'Arduino Pro or Pro Mini (3.3V, 8 MHz) w/ ATmega168'
p807
saa(lp808
S'atmega168'
p809
a(dp810
S'bootloader'
p811
(dp812
S'extended_fuses'
p813
S'0x00'
p814
sS'high_fuses'
p815
S'0xdd'
p816
sS'low_fuses'
p817
S'0xff'
p818
sS'lock_bits'
p819
S'0x0F'
p820
sS'file'
p821
S'ATmegaBOOT_168_ng.hex'
p822
sS'path'
p823
S'atmega'
p824
sS'unlock_bits'
p825
S'0x3F'
p826
ssS'upload'
p827
(dp828
S'protocol'
p829
S'arduino'
p830
sS'maximum_size'
p831
S'14336'
p832
sS'speed'
p833
S'19200'
p834
ssS'build'
p835
(dp836
S'core'
p837
S'arduino'
p838
sS'mcu'
p839
S'atmega168'
p840
sS'f_cpu'
p841
S'16000000L'
p842
sS'variant'
p843
S'standard'
p844
ssS'name'
p845
S'Arduino NG or older w/ ATmega168'
p846
saa(lp847
S'atmega8'
p848
a(dp849
S'bootloader'
p850
(dp851
S'high_fuses'
p852
S'0xca'
p853
sS'low_fuses'
p854
S'0xdf'
p855
sS'lock_bits'
p856
S'0x0F'
p857
sS'file'
p858
S'ATmegaBOOT.hex'
p859
sS'path'
p860
S'atmega8'
p861
sS'unlock_bits'
p862
S'0x3F'
p863
ssS'upload'
p864
(dp865
S'protocol'
p866
S'arduino'
p867
sS'maximum_size'
p868
S'7168'
p869
sS'speed'
p870
S'19200'
p871
ssS'build'
p872
(dp873
S'core'
p874
S'arduino'
p875
sS'mcu'
p876
S'atmega8'
p877
sS'f_cpu'
p878
S'16000000L'
p879
sS'variant'
p880
S'standard'
p881
ssS'name'
p882
S'Arduino NG or older w/ ATmega8'
p883
saatp884
Rp885
(dp886
S'default'
p887
S'uno'
p888
sbtp889
a(S'used_libs'
p890
(lp891
S'/usr/share/arduino/hardware/arduino/cores/arduino'
p892
atp893
a(S'make'
p894
S'/usr/bin/make'
p895
tp896
a(S'build_dir'
p897
S'.build/uno'
p898
tp899
a(S'cc'
p900
S'/usr/bin/avr-gcc'
p901
tp902
a(S'cflags'
p903
g2
(g3
g4
(lp904
tp905
Rp906
tp907
a(S'cxxflags'
p908
g2
(g3
g4
(lp909
S'-fno-exceptions'
p910
atp911
Rp912
tp913
a(S'arduino_variants_dir'
p914
S'/usr/share/arduino/hardware/arduino/variants'
p915
tp916
a(S'stty'
p917
S'/bin/stty'
p918
tp919
a(S'version.txt'
p920
S'/usr/share/arduino/lib/version.txt'
p921
tp922
a(S'arduino_core_dir'
p923
g892
tp924
a(S'boards.txt'
p925
S'/usr/share/arduino/hardware/arduino/boards.txt'
p926
tp927
a(S'avrdude.conf'
p928
S'/usr/share/arduino/hardware/tools/avrdude.conf'
p929
tp930
a(g40
g2
(g3
g4
(lp931
S'.build/uno/src/dependencies.d'
p932
aS'.build/uno/arduino/dependencies.d'
p933
atp934
Rp935
tp936
a.